; Function Attrs: mustprogress nounwind uwtable
define void @_ZN6Assimp15DefaultIOStreamD2Ev(ptr noundef nonnull align 8 dereferenceable(56) %this) unnamed_addr #0 align 2 personality ptr @__gxx_personality_v0 {
entry:
  store ptr getelementptr inbounds ({ [10 x ptr] }, ptr @_ZTVN6Assimp15DefaultIOStreamE, i64 0, i32 0, i64 2), ptr %this, align 8
  %mFile = getelementptr inbounds i8, ptr %this, i64 8
  %0 = load ptr, ptr %mFile, align 8
  %tobool.not = icmp eq ptr %0, null
  br i1 %tobool.not, label %if.end, label %if.then

if.then:                                          ; preds = %entry
  %call = tail call i32 @fclose(ptr noundef nonnull %0)
  br label %if.end

if.end:                                           ; preds = %if.then, %entry
  %mFilename = getelementptr inbounds i8, ptr %this, i64 16
  tail call void @_ZNSt7__cxx1112basic_stringIcSt11char_traitsIcESaIcEED1Ev(ptr noundef nonnull align 8 dereferenceable(32) %mFilename) #4
  ret void
}